target datalayout = "e-m:e-p270:32:32-p271:32:32-p272:64:64-i64:64-i128:128-f80:128-n8:16:32:64-S128"
target triple = "x86_64-pc-linux-gnu"

%struct._lv_global_t = type { i8, i8, %struct.lv_ll_t, ptr, ptr, %struct.lv_ll_t, i8, i32, i32, ptr, %struct.lv_ll_t, ptr, %struct.lv_ll_t, ptr, ptr, i32, ptr, i8, i32, i32, ptr, i32, %struct.lv_timer_state_t, %struct.lv_anim_state_t, %struct.lv_tick_state_t, %struct._lv_draw_buf_handlers_t, %struct._lv_draw_buf_handlers_t, %struct._lv_draw_buf_handlers_t, %struct.lv_ll_t, ptr, ptr, %struct.lv_draw_global_info_t, [4 x %struct.lv_draw_sw_mask_radius_circle_dsc_t], ptr, ptr, ptr, %struct.lv_tlsf_state_t, %struct.lv_ll_t, ptr, ptr, %struct.lv_style_t, i64, ptr, i32, ptr }
%struct.lv_timer_state_t = type { %struct.lv_ll_t, i8, i8, i8, i8, i32, i8, i32, i32, i32, i32, ptr, ptr }
%struct.lv_anim_state_t = type { i8, i8, ptr, %struct.lv_ll_t }
%struct.lv_tick_state_t = type { i32, i8, ptr, ptr }
%struct._lv_draw_buf_handlers_t = type { ptr, ptr, ptr, ptr, ptr, ptr }
%struct.lv_draw_global_info_t = type { ptr, i32, i32, i32, i32, i8 }
%struct.lv_draw_sw_mask_radius_circle_dsc_t = type { ptr, ptr, ptr, ptr, i32, i32, i32 }
%struct.lv_tlsf_state_t = type { ptr, i64, i64, %struct.lv_ll_t }
%struct.lv_ll_t = type { i32, ptr, ptr }
%struct.lv_style_t = type { ptr, i32, i8 }
%struct._lv_group_t = type { %struct.lv_ll_t, ptr, ptr, ptr, ptr, i8 }

@lv_global = external global %struct._lv_global_t, align 8

; Function Attrs: nounwind uwtable
define ptr @lv_group_create() #0 {
  %1 = alloca ptr, align 8
  %2 = alloca ptr, align 8
  %3 = alloca i32, align 4
  call void @llvm.lifetime.start.p0(i64 8, ptr %2) #3
  %4 = call ptr @lv_ll_ins_head(ptr noundef getelementptr inbounds nuw (%struct._lv_global_t, ptr @lv_global, i32 0, i32 10))
  store ptr %4, ptr %2, align 8, !tbaa !3
  br label %5

5:                                                ; preds = %0
  %6 = load ptr, ptr %2, align 8, !tbaa !3
  %7 = icmp ne ptr %6, null
  br i1 %7, label %14, label %8

8:                                                ; preds = %5
  br label %9

9:                                                ; preds = %8
  br label %10

10:                                               ; preds = %9
  br label %11

11:                                               ; preds = %10
  br label %12

12:                                               ; preds = %13, %11
  br label %13

13:                                               ; preds = %12
  br label %12

14:                                               ; preds = %5
  br label %15

15:                                               ; preds = %14
  br label %16

16:                                               ; preds = %15
  %17 = load ptr, ptr %2, align 8, !tbaa !3
  %18 = icmp eq ptr %17, null
  br i1 %18, label %19, label %20

19:                                               ; preds = %16
  store ptr null, ptr %1, align 8
  store i32 1, ptr %3, align 4
  br label %52

20:                                               ; preds = %16
  %21 = load ptr, ptr %2, align 8, !tbaa !3
  %22 = getelementptr inbounds nuw %struct._lv_group_t, ptr %21, i32 0, i32 0
  call void @lv_ll_init(ptr noundef %22, i32 noundef 8)
  %23 = load ptr, ptr %2, align 8, !tbaa !3
  %24 = getelementptr inbounds nuw %struct._lv_group_t, ptr %23, i32 0, i32 1
  store ptr null, ptr %24, align 8, !tbaa !7
  %25 = load ptr, ptr %2, align 8, !tbaa !3
  %26 = getelementptr inbounds nuw %struct._lv_group_t, ptr %25, i32 0, i32 5
  %27 = load i8, ptr %26, align 8
  %28 = and i8 %27, -2
  %29 = or i8 %28, 0
  store i8 %29, ptr %26, align 8
  %30 = load ptr, ptr %2, align 8, !tbaa !3
  %31 = getelementptr inbounds nuw %struct._lv_group_t, ptr %30, i32 0, i32 2
  store ptr null, ptr %31, align 8, !tbaa !11
  %32 = load ptr, ptr %2, align 8, !tbaa !3
  %33 = getelementptr inbounds nuw %struct._lv_group_t, ptr %32, i32 0, i32 3
  store ptr null, ptr %33, align 8, !tbaa !12
  %34 = load ptr, ptr %2, align 8, !tbaa !3
  %35 = getelementptr inbounds nuw %struct._lv_group_t, ptr %34, i32 0, i32 5
  %36 = load i8, ptr %35, align 8
  %37 = and i8 %36, -3
  %38 = or i8 %37, 0
  store i8 %38, ptr %35, align 8
  %39 = load ptr, ptr %2, align 8, !tbaa !3
  %40 = getelementptr inbounds nuw %struct._lv_group_t, ptr %39, i32 0, i32 5
  %41 = load i8, ptr %40, align 8
  %42 = and i8 %41, -5
  %43 = or i8 %42, 4
  store i8 %43, ptr %40, align 8
  %44 = load ptr, ptr %2, align 8, !tbaa !3
  %45 = getelementptr inbounds nuw %struct._lv_group_t, ptr %44, i32 0, i32 5
  %46 = load i8, ptr %45, align 8
  %47 = and i8 %46, -9
  %48 = or i8 %47, 8
  store i8 %48, ptr %45, align 8
  %49 = load ptr, ptr %2, align 8, !tbaa !3
  %50 = getelementptr inbounds nuw %struct._lv_group_t, ptr %49, i32 0, i32 4
  store ptr null, ptr %50, align 8, !tbaa !13
  %51 = load ptr, ptr %2, align 8, !tbaa !3
  store ptr %51, ptr %1, align 8
  store i32 1, ptr %3, align 4
  br label %52

52:                                               ; preds = %20, %19
  call void @llvm.lifetime.end.p0(i64 8, ptr %2) #3
  %53 = load ptr, ptr %1, align 8
  ret ptr %53
}