; Function Attrs: nounwind uwtable
define nonnull ptr @lv_group_create() local_unnamed_addr #0 {
  %1 = tail call ptr @lv_ll_ins_head(ptr noundef nonnull getelementptr inbounds nuw (i8, ptr @lv_global, i64 96)) #10
  %.not = icmp eq ptr %1, null
  br i1 %.not, label %.preheader, label %2

.preheader:                                       ; preds = %0, %.preheader
  br label %.preheader

2:                                                ; preds = %0
  tail call void @lv_ll_init(ptr noundef nonnull %1, i32 noundef 8) #10
  %3 = getelementptr inbounds nuw i8, ptr %1, i64 24
  store ptr null, ptr %3, align 8, !tbaa !3
  %4 = getelementptr inbounds nuw i8, ptr %1, i64 56
  %5 = load i8, ptr %4, align 8
  %6 = getelementptr inbounds nuw i8, ptr %1, i64 32
  %7 = and i8 %5, -16
  %8 = or disjoint i8 %7, 12
  tail call void @llvm.memset.p0.i64(ptr noundef nonnull align 8 dereferenceable(16) %6, i8 0, i64 16, i1 false)
  store i8 %8, ptr %4, align 8
  %9 = getelementptr inbounds nuw i8, ptr %1, i64 48
  store ptr null, ptr %9, align 8, !tbaa !10
  ret ptr %1
}